target datalayout = "e-m:e-p270:32:32-p271:32:32-p272:64:64-i64:64-i128:128-f80:128-n8:16:32:64-S128"
target triple = "x86_64-pc-linux-gnu"

%union.pthread_mutex_t = type { %struct.__pthread_mutex_s }
%struct.__pthread_mutex_s = type { i32, i32, i32, i32, i32, i16, i16, %struct.__pthread_internal_list }
%struct.__pthread_internal_list = type { ptr, ptr }
%struct.GC_Thread_Rep = type { %union.anon.0, ptr, i64, i8, [7 x i8], i64, i64, ptr, %struct.thread_local_freelists }
%union.anon.0 = type { ptr }
%struct.thread_local_freelists = type { [3 x [25 x ptr]], [25 x ptr] }

@GC_need_to_lock = internal global i32 0, align 4
@GC_allocate_ml = internal global %union.pthread_mutex_t zeroinitializer, align 8
@GC_on_abort = global ptr @GC_default_on_abort, align 8
@GC_collecting = internal global i8 0, align 1
@GC_threads = internal global [256 x ptr] zeroinitializer, align 16
@GC_nprocs = internal global i32 1, align 4
@.str.340 = private unnamed_addr constant [44 x i8] c"Unexpected error from pthread_mutex_trylock\00", align 1

; Function Attrs: nounwind uwtable
define internal void @GC_pause() #0 {
  %1 = alloca i32, align 4
  store i32 0, ptr %1, align 4
  br label %2

2:                                                ; preds = %6, %0
  %3 = load i32, ptr %1, align 4
  %4 = icmp slt i32 %3, 10
  br i1 %4, label %5, label %9

5:                                                ; preds = %2
  fence syncscope("singlethread") seq_cst
  br label %6

6:                                                ; preds = %5
  %7 = load i32, ptr %1, align 4
  %8 = add nsw i32 %7, 1
  store i32 %8, ptr %1, align 4
  br label %2, !llvm.loop !262

9:                                                ; preds = %2
  ret void
}

; Function Attrs: nounwind uwtable
define internal void @GC_generic_lock(ptr noundef %0) #0 {
  %2 = alloca ptr, align 8
  %3 = alloca i32, align 4
  %4 = alloca i32, align 4
  store ptr %0, ptr %2, align 8
  store i32 1, ptr %3, align 4
  %5 = load ptr, ptr %2, align 8
  %6 = call i32 @pthread_mutex_trylock(ptr noundef %5) #18
  %7 = icmp eq i32 0, %6
  %8 = zext i1 %7 to i32
  %9 = sext i32 %8 to i64
  %10 = icmp ne i64 %9, 0
  br i1 %10, label %11, label %12

11:                                               ; preds = %1
  br label %39

12:                                               ; preds = %1
  br label %13

13:                                               ; preds = %33, %12
  %14 = load i32, ptr %3, align 4
  %15 = icmp ule i32 %14, 128
  br i1 %15, label %16, label %36

16:                                               ; preds = %13
  store i32 0, ptr %4, align 4
  br label %17

17:                                               ; preds = %22, %16
  %18 = load i32, ptr %4, align 4
  %19 = load i32, ptr %3, align 4
  %20 = icmp ult i32 %18, %19
  br i1 %20, label %21, label %25

21:                                               ; preds = %17
  call void @GC_pause()
  br label %22

22:                                               ; preds = %21
  %23 = load i32, ptr %4, align 4
  %24 = add i32 %23, 1
  store i32 %24, ptr %4, align 4
  br label %17, !llvm.loop !260

25:                                               ; preds = %17
  %26 = load ptr, ptr %2, align 8
  %27 = call i32 @pthread_mutex_trylock(ptr noundef %26) #18
  switch i32 %27, label %30 [
    i32 0, label %28
    i32 16, label %29
  ]

28:                                               ; preds = %25
  br label %39

29:                                               ; preds = %25
  br label %32

30:                                               ; preds = %25
  %31 = load ptr, ptr @GC_on_abort, align 8
  call void %31(ptr noundef @.str.340)
  call void @abort() #20
  unreachable

32:                                               ; preds = %29
  br label %33

33:                                               ; preds = %32
  %34 = load i32, ptr %3, align 4
  %35 = shl i32 %34, 1
  store i32 %35, ptr %3, align 4
  br label %13, !llvm.loop !261

36:                                               ; preds = %13
  %37 = load ptr, ptr %2, align 8
  %38 = call i32 @pthread_mutex_lock(ptr noundef %37) #18
  br label %39

39:                                               ; preds = %36, %28, %11
  ret void
}

; Function Attrs: nounwind uwtable
define internal ptr @GC_lookup_thread(i64 noundef %0) #0 {
  %2 = alloca i64, align 8
  %3 = alloca ptr, align 8
  store i64 %0, ptr %2, align 8
  %4 = load i64, ptr %2, align 8
  %5 = lshr i64 %4, 8
  %6 = load i64, ptr %2, align 8
  %7 = xor i64 %5, %6
  %8 = lshr i64 %7, 16
  %9 = load i64, ptr %2, align 8
  %10 = lshr i64 %9, 8
  %11 = load i64, ptr %2, align 8
  %12 = xor i64 %10, %11
  %13 = xor i64 %8, %12
  %14 = urem i64 %13, 256
  %15 = trunc i64 %14 to i32
  %16 = sext i32 %15 to i64
  %17 = getelementptr inbounds [256 x ptr], ptr @GC_threads, i64 0, i64 %16
  %18 = load ptr, ptr %17, align 8
  store ptr %18, ptr %3, align 8
  br label %19

19:                                               ; preds = %33, %1
  %20 = load ptr, ptr %3, align 8
  %21 = icmp ne ptr %20, null
  br i1 %21, label %22, label %37

22:                                               ; preds = %19
  %23 = load ptr, ptr %3, align 8
  %24 = getelementptr inbounds %struct.GC_Thread_Rep, ptr %23, i32 0, i32 2
  %25 = load i64, ptr %24, align 8
  %26 = load i64, ptr %2, align 8
  %27 = icmp eq i64 %25, %26
  %28 = zext i1 %27 to i32
  %29 = sext i32 %28 to i64
  %30 = icmp ne i64 %29, 0
  br i1 %30, label %31, label %32

31:                                               ; preds = %22
  br label %37

32:                                               ; preds = %22
  br label %33

33:                                               ; preds = %32
  %34 = load ptr, ptr %3, align 8
  %35 = getelementptr inbounds %struct.GC_Thread_Rep, ptr %34, i32 0, i32 0
  %36 = load ptr, ptr %35, align 8
  store ptr %36, ptr %3, align 8
  br label %19, !llvm.loop !98

37:                                               ; preds = %31, %19
  %38 = load ptr, ptr %3, align 8
  ret ptr %38
}

; Function Attrs: nounwind uwtable
define internal void @GC_lock() #0 {
  %1 = alloca i8, align 1
  %2 = load i32, ptr @GC_nprocs, align 4
  %3 = icmp eq i32 1, %2
  br i1 %3, label %9, label %4

4:                                                ; preds = %0
  %5 = load atomic volatile i8, ptr @GC_collecting monotonic, align 1
  store i8 %5, ptr %1, align 1
  %6 = load i8, ptr %1, align 1
  %7 = zext i8 %6 to i32
  %8 = icmp ne i32 %7, 0
  br i1 %8, label %9, label %11

9:                                                ; preds = %4, %0
  %10 = call i32 @pthread_mutex_lock(ptr noundef @GC_allocate_ml) #18
  br label %12

11:                                               ; preds = %4
  call void @GC_generic_lock(ptr noundef @GC_allocate_ml)
  br label %12

12:                                               ; preds = %11, %9
  ret void
}

; Function Attrs: nounwind uwtable
define i32 @GC_is_thread_suspended(i64 noundef %0) #0 {
  %2 = alloca i64, align 8
  %3 = alloca ptr, align 8
  %4 = alloca i32, align 4
  store i64 %0, ptr %2, align 8
  store i32 0, ptr %4, align 4
  br label %5

5:                                                ; preds = %1
  %6 = load i32, ptr @GC_need_to_lock, align 4
  %7 = icmp ne i32 %6, 0
  br i1 %7, label %8, label %13

8:                                                ; preds = %5
  %9 = call i32 @pthread_mutex_trylock(ptr noundef @GC_allocate_ml) #18
  %10 = icmp ne i32 0, %9
  br i1 %10, label %11, label %12

11:                                               ; preds = %8
  call void @GC_lock()
  br label %12

12:                                               ; preds = %11, %8
  br label %13

13:                                               ; preds = %12, %5
  br label %14

14:                                               ; preds = %13
  %15 = load i64, ptr %2, align 8
  %16 = call ptr @GC_lookup_thread(i64 noundef %15)
  store ptr %16, ptr %3, align 8
  %17 = load ptr, ptr %3, align 8
  %18 = icmp ne ptr %17, null
  br i1 %18, label %19, label %26

19:                                               ; preds = %14
  %20 = load ptr, ptr %3, align 8
  %21 = getelementptr inbounds %struct.GC_Thread_Rep, ptr %20, i32 0, i32 6
  %22 = load volatile i64, ptr %21, align 8
  %23 = and i64 %22, 1
  %24 = icmp ne i64 %23, 0
  br i1 %24, label %25, label %26

25:                                               ; preds = %19
  store i32 1, ptr %4, align 4
  br label %26

26:                                               ; preds = %25, %19, %14
  br label %27

27:                                               ; preds = %26
  %28 = load i32, ptr @GC_need_to_lock, align 4
  %29 = icmp ne i32 %28, 0
  br i1 %29, label %30, label %32

30:                                               ; preds = %27
  %31 = call i32 @pthread_mutex_unlock(ptr noundef @GC_allocate_ml) #18
  br label %32

32:                                               ; preds = %30, %27
  br label %33

33:                                               ; preds = %32
  %34 = load i32, ptr %4, align 4
  ret i32 %34
}