; Function Attrs: nounwind uwtable
define range(i32 0, 2) i32 @GC_is_thread_suspended(i64 noundef %0) local_unnamed_addr #1 {
  %.b4 = load i1, ptr @GC_need_to_lock, align 4
  br i1 %.b4, label %2, label %GC_lock.exit

2:                                                ; preds = %1
  %3 = tail call i32 @pthread_mutex_trylock(ptr noundef nonnull @GC_allocate_ml) #41
  %.not = icmp eq i32 %3, 0
  br i1 %.not, label %GC_lock.exit, label %4

4:                                                ; preds = %2
  %5 = load i32, ptr @GC_nprocs, align 4
  %6 = icmp eq i32 %5, 1
  br i1 %6, label %GC_generic_lock.exit.sink.split.i, label %7

7:                                                ; preds = %4
  %8 = load atomic volatile i8, ptr @GC_collecting monotonic, align 1
  %.not.i = icmp eq i8 %8, 0
  br i1 %.not.i, label %9, label %GC_generic_lock.exit.sink.split.i

9:                                                ; preds = %7
  %10 = tail call i32 @pthread_mutex_trylock(ptr noundef nonnull @GC_allocate_ml) #41
  %11 = icmp eq i32 %10, 0
  br i1 %11, label %GC_lock.exit, label %.preheader.i.i

.preheader.i.i:                                   ; preds = %9, %15
  %.079.i.i = phi i32 [ %16, %15 ], [ 1, %9 ]
  fence syncscope("singlethread") seq_cst
  %12 = tail call i32 @pthread_mutex_trylock(ptr noundef nonnull @GC_allocate_ml) #41
  switch i32 %12, label %13 [
    i32 0, label %GC_lock.exit
    i32 16, label %15
  ]

13:                                               ; preds = %.preheader.i.i
  %14 = load ptr, ptr @GC_on_abort, align 8
  tail call void %14(ptr noundef nonnull @.str.340) #41
  tail call void @abort() #47
  unreachable

15:                                               ; preds = %.preheader.i.i
  %16 = shl nuw nsw i32 %.079.i.i, 1
  %17 = icmp samesign ult i32 %.079.i.i, 65
  br i1 %17, label %.preheader.i.i, label %GC_generic_lock.exit.sink.split.i, !llvm.loop !4

GC_generic_lock.exit.sink.split.i:                ; preds = %15, %7, %4
  %18 = tail call i32 @pthread_mutex_lock(ptr noundef nonnull @GC_allocate_ml) #41
  br label %GC_lock.exit

GC_lock.exit:                                     ; preds = %.preheader.i.i, %GC_generic_lock.exit.sink.split.i, %9, %1, %2
  %19 = lshr i64 %0, 8
  %20 = xor i64 %19, %0
  %21 = lshr i64 %20, 16
  %22 = xor i64 %21, %20
  %23 = and i64 %22, 255
  %24 = getelementptr inbounds nuw [256 x ptr], ptr @GC_threads, i64 0, i64 %23
  br label %25

25:                                               ; preds = %26, %GC_lock.exit
  %.0.in.i = phi ptr [ %24, %GC_lock.exit ], [ %.0.i, %26 ]
  %.0.i = load ptr, ptr %.0.in.i, align 8
  %.not.i7 = icmp eq ptr %.0.i, null
  br i1 %.not.i7, label %GC_lookup_thread.exit.thread, label %26

26:                                               ; preds = %25
  %27 = getelementptr inbounds nuw i8, ptr %.0.i, i64 16
  %28 = load i64, ptr %27, align 8
  %29 = icmp eq i64 %28, %0
  br i1 %29, label %GC_lookup_thread.exit, label %25, !llvm.loop !10

GC_lookup_thread.exit:                            ; preds = %26
  %30 = getelementptr inbounds nuw i8, ptr %.0.i, i64 40
  %31 = load volatile i64, ptr %30, align 8
  %32 = trunc i64 %31 to i32
  %spec.select = and i32 %32, 1
  br label %GC_lookup_thread.exit.thread

GC_lookup_thread.exit.thread:                     ; preds = %25, %GC_lookup_thread.exit
  %.0 = phi i32 [ %spec.select, %GC_lookup_thread.exit ], [ 0, %25 ]
  %.b = load i1, ptr @GC_need_to_lock, align 4
  br i1 %.b, label %33, label %35

33:                                               ; preds = %GC_lookup_thread.exit.thread
  %34 = tail call i32 @pthread_mutex_unlock(ptr noundef nonnull @GC_allocate_ml) #41
  br label %35

35:                                               ; preds = %GC_lookup_thread.exit.thread, %33
  ret i32 %.0
}